; ModuleID = 'source-C-CXX/56/3073.c'
source_filename = "source-C-CXX/56/3073.c"
target datalayout = "e-m:e-p270:32:32-p271:32:32-p272:64:64-i64:64-f80:128-n8:16:32:64-S128"
target triple = "x86_64-pc-linux-gnu"

@.str = private unnamed_addr constant [3 x i8] c"%d\00", align 1
@.str.1 = private unnamed_addr constant [3 x i8] c"%s\00", align 1

; Function Attrs: nofree nounwind sspstrong uwtable
define dso_local i32 @main() local_unnamed_addr #0 {
  %1 = alloca i32, align 4
  %2 = alloca [20 x [20 x i8]], align 16
  %3 = bitcast i32* %1 to i8*
  call void @llvm.lifetime.start.p0i8(i64 4, i8* nonnull %3) #5
  %4 = getelementptr inbounds [20 x [20 x i8]], [20 x [20 x i8]]* %2, i64 0, i64 0, i64 0
  call void @llvm.lifetime.start.p0i8(i64 400, i8* nonnull %4) #5
  %5 = call i32 (i8*, ...) @__isoc99_scanf(i8* getelementptr inbounds ([3 x i8], [3 x i8]* @.str, i64 0, i64 0), i32* nonnull %1)
  %6 = load i32, i32* %1, align 4, !tbaa !5
  %7 = icmp sgt i32 %6, 0
  br i1 %7, label %8, label %52

8:                                                ; preds = %0, %47
  %9 = phi i64 [ %48, %47 ], [ 0, %0 ]
  %10 = getelementptr inbounds [20 x [20 x i8]], [20 x [20 x i8]]* %2, i64 0, i64 %9, i64 0
  %11 = call i32 (i8*, ...) @__isoc99_scanf(i8* getelementptr inbounds ([3 x i8], [3 x i8]* @.str.1, i64 0, i64 0), i8* nonnull %10)
  %12 = call i64 @strlen(i8* noundef nonnull %10) #6
  %13 = shl i64 %12, 32
  %14 = add i64 %13, -8589934592
  %15 = ashr exact i64 %14, 32
  %16 = getelementptr inbounds [20 x [20 x i8]], [20 x [20 x i8]]* %2, i64 0, i64 %9, i64 %15
  %17 = load i8, i8* %16, align 1, !tbaa !9
  switch i8 %17, label %30 [
    i8 101, label %18
    i8 108, label %24
  ]

18:                                               ; preds = %8
  %19 = add i64 %13, -4294967296
  %20 = ashr exact i64 %19, 32
  %21 = getelementptr inbounds [20 x [20 x i8]], [20 x [20 x i8]]* %2, i64 0, i64 %9, i64 %20
  %22 = load i8, i8* %21, align 1, !tbaa !9
  %23 = icmp eq i8 %22, 114
  br i1 %23, label %44, label %30

24:                                               ; preds = %8
  %25 = add i64 %13, -4294967296
  %26 = ashr exact i64 %25, 32
  %27 = getelementptr inbounds [20 x [20 x i8]], [20 x [20 x i8]]* %2, i64 0, i64 %9, i64 %26
  %28 = load i8, i8* %27, align 1, !tbaa !9
  %29 = icmp eq i8 %28, 121
  br i1 %29, label %44, label %30

30:                                               ; preds = %8, %18, %24
  %31 = add i64 %13, -12884901888
  %32 = ashr exact i64 %31, 32
  %33 = getelementptr inbounds [20 x [20 x i8]], [20 x [20 x i8]]* %2, i64 0, i64 %9, i64 %32
  %34 = load i8, i8* %33, align 1, !tbaa !9
  %35 = icmp eq i8 %34, 105
  %36 = icmp eq i8 %17, 110
  %37 = select i1 %35, i1 %36, i1 false
  br i1 %37, label %38, label %47

38:                                               ; preds = %30
  %39 = add i64 %13, -4294967296
  %40 = ashr exact i64 %39, 32
  %41 = getelementptr inbounds [20 x [20 x i8]], [20 x [20 x i8]]* %2, i64 0, i64 %9, i64 %40
  %42 = load i8, i8* %41, align 1, !tbaa !9
  %43 = icmp eq i8 %42, 103
  br i1 %43, label %44, label %47

44:                                               ; preds = %38, %18, %24
  %45 = phi i8* [ %16, %24 ], [ %16, %18 ], [ %33, %38 ]
  store i8 0, i8* %45, align 1, !tbaa !9
  %46 = call i32 @puts(i8* nonnull %10)
  br label %47

47:                                               ; preds = %44, %30, %38
  store i8 0, i8* %10, align 4
  %48 = add nuw nsw i64 %9, 1
  %49 = load i32, i32* %1, align 4, !tbaa !5
  %50 = sext i32 %49 to i64
  %51 = icmp slt i64 %48, %50
  br i1 %51, label %8, label %52, !llvm.loop !10

52:                                               ; preds = %47, %0
  call void @llvm.lifetime.end.p0i8(i64 400, i8* nonnull %4) #5
  call void @llvm.lifetime.end.p0i8(i64 4, i8* nonnull %3) #5
  ret i32 0
}

; Function Attrs: argmemonly mustprogress nofree nosync nounwind willreturn
declare void @llvm.lifetime.start.p0i8(i64 immarg, i8* nocapture) #1

; Function Attrs: nofree nounwind
declare noundef i32 @__isoc99_scanf(i8* nocapture noundef readonly, ...) local_unnamed_addr #2

; Function Attrs: argmemonly mustprogress nofree nounwind readonly willreturn
declare i64 @strlen(i8* nocapture) local_unnamed_addr #3

; Function Attrs: argmemonly mustprogress nofree nosync nounwind willreturn
declare void @llvm.lifetime.end.p0i8(i64 immarg, i8* nocapture) #1

; Function Attrs: nofree nounwind
declare noundef i32 @puts(i8* nocapture noundef readonly) local_unnamed_addr #4


!llvm.module.flags = !{!0, !1, !2, !3}
!llvm.ident = !{!4}

!0 = !{i32 1, !"wchar_size", i32 4}
!1 = !{i32 7, !"PIC Level", i32 2}
!2 = !{i32 7, !"PIE Level", i32 2}
!3 = !{i32 7, !"uwtable", i32 1}
!4 = !{!"clang version 13.0.0"}
!5 = !{!6, !6, i64 0}
!6 = !{!"int", !7, i64 0}
!7 = !{!"omnipotent char", !8, i64 0}
!8 = !{!"Simple C/C++ TBAA"}
!9 = !{!7, !7, i64 0}
!10 = distinct !{!10, !11}
!11 = !{!"llvm.loop.mustprogress"}
